target datalayout = "e-m:e-p270:32:32-p271:32:32-p272:64:64-i64:64-i128:128-f80:128-n8:16:32:64-S128"
target triple = "x86_64-pc-linux-gnu"

; Function Attrs: null_pointer_is_valid sspstrong uwtable
define internal i32 @dissect_wccp2_assignment_map(ptr noundef %0, i32 noundef %1, i32 noundef %2, ptr noundef %3, ptr noundef %4, ptr noundef %5) #0 {
  %7 = alloca i32, align 4
  %8 = alloca ptr, align 8
  %9 = alloca i32, align 4
  %10 = alloca i32, align 4
  %11 = alloca ptr, align 8
  %12 = alloca ptr, align 8
  %13 = alloca ptr, align 8
  %14 = alloca i32, align 4
  %15 = alloca i32, align 4
  %16 = alloca i32, align 4
  store ptr %0, ptr %8, align 8
  store i32 %1, ptr %9, align 4
  store i32 %2, ptr %10, align 4
  store ptr %3, ptr %11, align 8
  store ptr %4, ptr %12, align 8
  store ptr %5, ptr %13, align 8
  call void @llvm.lifetime.start.p0(i64 4, ptr %14) #9
  %17 = load ptr, ptr %8, align 8
  %18 = load i32, ptr %9, align 4
  %19 = load i32, ptr %10, align 4
  %20 = load ptr, ptr %11, align 8
  %21 = load ptr, ptr %12, align 8
  %22 = load ptr, ptr %13, align 8
  %23 = call i32 @dissect_wccp2_mask_value_set_list(ptr noundef %17, i32 noundef %18, i32 noundef %19, ptr noundef %20, ptr noundef %21, ptr noundef %22)
  store i32 %23, ptr %14, align 4
  call void @llvm.lifetime.start.p0(i64 4, ptr %15) #9
  %24 = load i32, ptr %9, align 4
  store i32 %24, ptr %15, align 4
  %25 = load i32, ptr %14, align 4
  %26 = icmp slt i32 %25, 0
  br i1 %26, label %27, label %29

27:                                               ; preds = %6
  %28 = load i32, ptr %14, align 4
  store i32 %28, ptr %7, align 4
  store i32 1, ptr %16, align 4
  br label %44

29:                                               ; preds = %6
  %30 = load i32, ptr %10, align 4
  %31 = load i32, ptr %14, align 4
  %32 = sub i32 %30, %31
  %33 = load i32, ptr %9, align 4
  %34 = add i32 %33, %32
  store i32 %34, ptr %9, align 4
  %35 = load i32, ptr %15, align 4
  %36 = load i32, ptr %9, align 4
  %37 = icmp sge i32 %35, %36
  br i1 %37, label %38, label %42

38:                                               ; preds = %29
  %39 = load i32, ptr %9, align 4
  %40 = load i32, ptr %15, align 4
  %41 = sub i32 %39, %40
  store i32 %41, ptr %7, align 4
  store i32 1, ptr %16, align 4
  br label %44

42:                                               ; preds = %29
  %43 = load i32, ptr %14, align 4
  store i32 %43, ptr %10, align 4
  store i32 0, ptr %16, align 4
  br label %44

44:                                               ; preds = %42, %38, %27
  call void @llvm.lifetime.end.p0(i64 4, ptr %15) #9
  %45 = load i32, ptr %16, align 4
  switch i32 %45, label %48 [
    i32 0, label %46
  ]

46:                                               ; preds = %44
  %47 = load i32, ptr %10, align 4
  store i32 %47, ptr %7, align 4
  store i32 1, ptr %16, align 4
  br label %48

48:                                               ; preds = %46, %44
  call void @llvm.lifetime.end.p0(i64 4, ptr %14) #9
  %49 = load i32, ptr %7, align 4
  ret i32 %49
}