; Function Attrs: null_pointer_is_valid sspstrong uwtable
define internal noundef i32 @dissect_wccp2_assignment_map(ptr noundef %0, i32 noundef %1, i32 noundef %2, ptr readnone captures(none) %3, ptr noundef %4, ptr noundef readonly captures(none) %5) unnamed_addr #0 {
.thread:
  %6 = tail call fastcc i32 @dissect_wccp2_mask_value_set_list(ptr noundef %0, i32 noundef %1, i32 noundef %2, ptr noundef %4, ptr noundef %5)
  %.fr = freeze i32 %6
  %7 = icmp slt i32 %.fr, 0
  %8 = sub i32 %2, %.fr
  %9 = add i32 %8, %1
  %.not = icmp slt i32 %1, %9
  %10 = or i1 %7, %.not
  %11 = select i1 %10, i32 %.fr, i32 %8
  ret i32 %11
}